target datalayout = "e-m:e-p270:32:32-p271:32:32-p272:64:64-i64:64-i128:128-f80:128-n8:16:32:64-S128"
target triple = "x86_64-pc-linux-gnu"

%"class.cv::Size_" = type { i32, i32 }
%"class.cv::detail::tracking::contrib_feature::CvFeatureEvaluator" = type { ptr, i32, i32, i32, %"class.cv::Size_", ptr, %"class.cv::Mat" }
%"class.cv::Mat" = type { i32, i32, i32, i32, ptr, ptr, ptr, ptr, ptr, ptr, %"struct.cv::MatSize", %"struct.cv::MatStep" }
%"struct.cv::MatSize" = type { ptr }
%"struct.cv::MatStep" = type { ptr, [2 x i64] }

; Function Attrs: mustprogress nounwind uwtable
define hidden void @_ZN2cv6detail8tracking15contrib_feature15CvHaarEvaluator10setWinSizeENS_5Size_IiEE(ptr noundef nonnull align 8 dereferenceable(360) %0, i64 %1) #6 align 2 {
  %3 = alloca %"class.cv::Size_", align 4
  %4 = alloca ptr, align 8
  store i64 %1, ptr %3, align 4
  store ptr %0, ptr %4, align 8, !tbaa !81
  %5 = load ptr, ptr %4, align 8
  %6 = getelementptr inbounds nuw %"class.cv::Size_", ptr %3, i32 0, i32 0
  %7 = load i32, ptr %6, align 4, !tbaa !97
  %8 = getelementptr inbounds nuw %"class.cv::detail::tracking::contrib_feature::CvFeatureEvaluator", ptr %5, i32 0, i32 4
  %9 = getelementptr inbounds nuw %"class.cv::Size_", ptr %8, i32 0, i32 0
  store i32 %7, ptr %9, align 4, !tbaa !72
  %10 = getelementptr inbounds nuw %"class.cv::Size_", ptr %3, i32 0, i32 1
  %11 = load i32, ptr %10, align 4, !tbaa !98
  %12 = getelementptr inbounds nuw %"class.cv::detail::tracking::contrib_feature::CvFeatureEvaluator", ptr %5, i32 0, i32 4
  %13 = getelementptr inbounds nuw %"class.cv::Size_", ptr %12, i32 0, i32 1
  store i32 %11, ptr %13, align 4, !tbaa !74
  ret void
}