; Function Attrs: mustprogress nofree norecurse nosync nounwind willreturn memory(argmem: write) uwtable
define hidden void @_ZN2cv6detail8tracking15contrib_feature15CvHaarEvaluator10setWinSizeENS_5Size_IiEE(ptr noundef nonnull writeonly align 8 captures(none) dereferenceable(360) initializes((20, 28)) %0, i64 %1) local_unnamed_addr #14 align 2 {
  %.sroa.0.0.extract.trunc = trunc i64 %1 to i32
  %.sroa.2.0.extract.shift = lshr i64 %1, 32
  %.sroa.2.0.extract.trunc = trunc nuw i64 %.sroa.2.0.extract.shift to i32
  %3 = getelementptr inbounds nuw i8, ptr %0, i64 20
  store i32 %.sroa.0.0.extract.trunc, ptr %3, align 4, !tbaa !80
  %4 = getelementptr inbounds nuw i8, ptr %0, i64 24
  store i32 %.sroa.2.0.extract.trunc, ptr %4, align 8, !tbaa !82
  ret void
}